target datalayout = "e-m:e-p270:32:32-p271:32:32-p272:64:64-i64:64-i128:128-f80:128-n8:16:32:64-S128"
target triple = "x86_64-pc-linux-gnu"

%struct._cmstransform_struct = type { i32, i32, ptr, ptr, ptr, ptr, ptr, %struct._cmsCACHE, ptr, ptr, ptr, ptr, i32, i32, %struct.cmsCIEXYZ, %struct.cmsCIEXYZ, ptr, i32, double, i32, ptr, ptr, ptr, ptr, ptr, i32, i32 }
%struct._cmsCACHE = type { [16 x i16], [16 x i16] }
%struct.cmsCIEXYZ = type { double, double, double }

; Function Attrs: nounwind uwtable
define internal i32 @_cmsQuickFloor(double noundef %0) #0 {
  %2 = alloca double, align 8
  store double %0, ptr %2, align 8
  %3 = load double, ptr %2, align 8
  %4 = call double @llvm.floor.f64(double %3)
  %5 = fptosi double %4 to i32
  ret i32 %5
}

; Function Attrs: nounwind uwtable
define internal zeroext i16 @_cmsQuickFloorWord(double noundef %0) #0 {
  %2 = alloca double, align 8
  store double %0, ptr %2, align 8
  %3 = load double, ptr %2, align 8
  %4 = fsub double %3, 3.276700e+04
  %5 = call i32 @_cmsQuickFloor(double noundef %4)
  %6 = trunc i32 %5 to i16
  %7 = zext i16 %6 to i32
  %8 = add i32 %7, 32767
  %9 = trunc i32 %8 to i16
  ret i16 %9
}

; Function Attrs: nounwind uwtable
define internal zeroext i16 @_cmsQuickSaturateWord(double noundef %0) #0 {
  %2 = alloca i16, align 2
  %3 = alloca double, align 8
  store double %0, ptr %3, align 8
  %4 = load double, ptr %3, align 8
  %5 = fadd double %4, 5.000000e-01
  store double %5, ptr %3, align 8
  %6 = load double, ptr %3, align 8
  %7 = fcmp ole double %6, 0.000000e+00
  br i1 %7, label %8, label %9

8:                                                ; preds = %1
  store i16 0, ptr %2, align 2
  br label %16

9:                                                ; preds = %1
  %10 = load double, ptr %3, align 8
  %11 = fcmp oge double %10, 6.553500e+04
  br i1 %11, label %12, label %13

12:                                               ; preds = %9
  store i16 -1, ptr %2, align 2
  br label %16

13:                                               ; preds = %9
  %14 = load double, ptr %3, align 8
  %15 = call zeroext i16 @_cmsQuickFloorWord(double noundef %14)
  store i16 %15, ptr %2, align 2
  br label %16

16:                                               ; preds = %13, %12, %8
  %17 = load i16, ptr %2, align 2
  ret i16 %17
}

; Function Attrs: nounwind uwtable
define internal ptr @PackBytesFromFloat(ptr noundef %0, ptr noundef %1, ptr noundef %2, i32 noundef %3) #0 {
  %5 = alloca ptr, align 8
  %6 = alloca ptr, align 8
  %7 = alloca ptr, align 8
  %8 = alloca ptr, align 8
  %9 = alloca i32, align 4
  %10 = alloca i32, align 4
  %11 = alloca i32, align 4
  %12 = alloca i32, align 4
  %13 = alloca i32, align 4
  %14 = alloca i32, align 4
  %15 = alloca i32, align 4
  %16 = alloca i32, align 4
  %17 = alloca ptr, align 8
  %18 = alloca double, align 8
  %19 = alloca i8, align 1
  %20 = alloca i32, align 4
  %21 = alloca i32, align 4
  %22 = alloca i32, align 4
  store ptr %0, ptr %6, align 8
  store ptr %1, ptr %7, align 8
  store ptr %2, ptr %8, align 8
  store i32 %3, ptr %9, align 4
  %23 = load ptr, ptr %6, align 8
  %24 = getelementptr inbounds %struct._cmstransform_struct, ptr %23, i32 0, i32 1
  %25 = load i32, ptr %24, align 4
  %26 = lshr i32 %25, 3
  %27 = and i32 %26, 15
  store i32 %27, ptr %10, align 4
  %28 = load ptr, ptr %6, align 8
  %29 = getelementptr inbounds %struct._cmstransform_struct, ptr %28, i32 0, i32 1
  %30 = load i32, ptr %29, align 4
  %31 = lshr i32 %30, 10
  %32 = and i32 %31, 1
  store i32 %32, ptr %11, align 4
  %33 = load ptr, ptr %6, align 8
  %34 = getelementptr inbounds %struct._cmstransform_struct, ptr %33, i32 0, i32 1
  %35 = load i32, ptr %34, align 4
  %36 = lshr i32 %35, 13
  %37 = and i32 %36, 1
  store i32 %37, ptr %12, align 4
  %38 = load ptr, ptr %6, align 8
  %39 = getelementptr inbounds %struct._cmstransform_struct, ptr %38, i32 0, i32 1
  %40 = load i32, ptr %39, align 4
  %41 = lshr i32 %40, 7
  %42 = and i32 %41, 7
  store i32 %42, ptr %13, align 4
  %43 = load ptr, ptr %6, align 8
  %44 = getelementptr inbounds %struct._cmstransform_struct, ptr %43, i32 0, i32 1
  %45 = load i32, ptr %44, align 4
  %46 = lshr i32 %45, 14
  %47 = and i32 %46, 1
  store i32 %47, ptr %14, align 4
  %48 = load ptr, ptr %6, align 8
  %49 = getelementptr inbounds %struct._cmstransform_struct, ptr %48, i32 0, i32 1
  %50 = load i32, ptr %49, align 4
  %51 = lshr i32 %50, 12
  %52 = and i32 %51, 1
  store i32 %52, ptr %15, align 4
  %53 = load i32, ptr %11, align 4
  %54 = load i32, ptr %14, align 4
  %55 = xor i32 %53, %54
  store i32 %55, ptr %16, align 4
  %56 = load ptr, ptr %8, align 8
  store ptr %56, ptr %17, align 8
  store double 0.000000e+00, ptr %18, align 8
  store i8 0, ptr %19, align 1
  store i32 0, ptr %21, align 4
  %57 = load i32, ptr %16, align 4
  %58 = icmp ne i32 %57, 0
  br i1 %58, label %59, label %61

59:                                               ; preds = %4
  %60 = load i32, ptr %13, align 4
  store i32 %60, ptr %21, align 4
  br label %61

61:                                               ; preds = %59, %4
  store i32 0, ptr %20, align 4
  br label %62

62:                                               ; preds = %120, %61
  %63 = load i32, ptr %20, align 4
  %64 = load i32, ptr %10, align 4
  %65 = icmp ult i32 %63, %64
  br i1 %65, label %66, label %123

66:                                               ; preds = %62
  %67 = load i32, ptr %11, align 4
  %68 = icmp ne i32 %67, 0
  br i1 %68, label %69, label %74

69:                                               ; preds = %66
  %70 = load i32, ptr %10, align 4
  %71 = load i32, ptr %20, align 4
  %72 = sub i32 %70, %71
  %73 = sub i32 %72, 1
  br label %76

74:                                               ; preds = %66
  %75 = load i32, ptr %20, align 4
  br label %76

76:                                               ; preds = %74, %69
  %77 = phi i32 [ %73, %69 ], [ %75, %74 ]
  store i32 %77, ptr %22, align 4
  %78 = load ptr, ptr %7, align 8
  %79 = load i32, ptr %22, align 4
  %80 = zext i32 %79 to i64
  %81 = getelementptr inbounds float, ptr %78, i64 %80
  %82 = load float, ptr %81, align 4
  %83 = fpext float %82 to double
  %84 = fmul double %83, 6.553500e+04
  store double %84, ptr %18, align 8
  %85 = load i32, ptr %12, align 4
  %86 = icmp ne i32 %85, 0
  br i1 %86, label %87, label %90

87:                                               ; preds = %76
  %88 = load double, ptr %18, align 8
  %89 = fsub double 6.553500e+04, %88
  store double %89, ptr %18, align 8
  br label %90

90:                                               ; preds = %87, %76
  %91 = load double, ptr %18, align 8
  %92 = call zeroext i16 @_cmsQuickSaturateWord(double noundef %91)
  %93 = zext i16 %92 to i32
  %94 = mul i32 %93, 65281
  %95 = add i32 %94, 8388608
  %96 = lshr i32 %95, 24
  %97 = and i32 %96, 255
  %98 = trunc i32 %97 to i8
  store i8 %98, ptr %19, align 1
  %99 = load i32, ptr %15, align 4
  %100 = icmp ne i32 %99, 0
  br i1 %100, label %101, label %111

101:                                              ; preds = %90
  %102 = load i8, ptr %19, align 1
  %103 = load ptr, ptr %8, align 8
  %104 = load i32, ptr %20, align 4
  %105 = load i32, ptr %21, align 4
  %106 = add i32 %104, %105
  %107 = load i32, ptr %9, align 4
  %108 = mul i32 %106, %107
  %109 = zext i32 %108 to i64
  %110 = getelementptr inbounds i8, ptr %103, i64 %109
  store i8 %102, ptr %110, align 1
  br label %119

111:                                              ; preds = %90
  %112 = load i8, ptr %19, align 1
  %113 = load ptr, ptr %8, align 8
  %114 = load i32, ptr %20, align 4
  %115 = load i32, ptr %21, align 4
  %116 = add i32 %114, %115
  %117 = zext i32 %116 to i64
  %118 = getelementptr inbounds i8, ptr %113, i64 %117
  store i8 %112, ptr %118, align 1
  br label %119

119:                                              ; preds = %111, %101
  br label %120

120:                                              ; preds = %119
  %121 = load i32, ptr %20, align 4
  %122 = add i32 %121, 1
  store i32 %122, ptr %20, align 4
  br label %62, !llvm.loop !34

123:                                              ; preds = %62
  %124 = load i32, ptr %13, align 4
  %125 = icmp eq i32 %124, 0
  br i1 %125, label %126, label %139

126:                                              ; preds = %123
  %127 = load i32, ptr %14, align 4
  %128 = icmp ne i32 %127, 0
  br i1 %128, label %129, label %139

129:                                              ; preds = %126
  %130 = load ptr, ptr %17, align 8
  %131 = getelementptr inbounds i8, ptr %130, i64 1
  %132 = load ptr, ptr %17, align 8
  %133 = load i32, ptr %10, align 4
  %134 = sub i32 %133, 1
  %135 = zext i32 %134 to i64
  %136 = mul i64 %135, 1
  call void @llvm.memmove.p0.p0.i64(ptr align 1 %131, ptr align 1 %132, i64 %136, i1 false)
  %137 = load i8, ptr %19, align 1
  %138 = load ptr, ptr %17, align 8
  store i8 %137, ptr %138, align 1
  br label %139

139:                                              ; preds = %129, %126, %123
  %140 = load ptr, ptr %6, align 8
  %141 = getelementptr inbounds %struct._cmstransform_struct, ptr %140, i32 0, i32 1
  %142 = load i32, ptr %141, align 4
  %143 = lshr i32 %142, 12
  %144 = and i32 %143, 1
  %145 = icmp ne i32 %144, 0
  br i1 %145, label %146, label %149

146:                                              ; preds = %139
  %147 = load ptr, ptr %8, align 8
  %148 = getelementptr inbounds i8, ptr %147, i64 1
  store ptr %148, ptr %5, align 8
  br label %157

149:                                              ; preds = %139
  %150 = load ptr, ptr %8, align 8
  %151 = load i32, ptr %10, align 4
  %152 = load i32, ptr %13, align 4
  %153 = add i32 %151, %152
  %154 = zext i32 %153 to i64
  %155 = mul i64 %154, 1
  %156 = getelementptr inbounds i8, ptr %150, i64 %155
  store ptr %156, ptr %5, align 8
  br label %157

157:                                              ; preds = %149, %146
  %158 = load ptr, ptr %5, align 8
  ret ptr %158
}