; Function Attrs: nofree norecurse nosync nounwind memory(argmem: readwrite) uwtable
define internal ptr @PackBytesFromFloat(ptr nocapture noundef readonly %0, ptr nocapture noundef readonly %1, ptr noundef %2, i32 noundef %3) #4 {
  %5 = getelementptr inbounds i8, ptr %0, i64 4
  %6 = load i32, ptr %5, align 4
  %.fr = freeze i32 %6
  %7 = lshr i32 %.fr, 3
  %8 = and i32 %7, 15
  %9 = lshr i32 %.fr, 10
  %10 = and i32 %9, 1
  %11 = lshr i32 %.fr, 7
  %12 = and i32 %11, 7
  %13 = lshr i32 %.fr, 14
  %14 = and i32 %13, 1
  %.not = icmp eq i32 %10, %14
  %spec.select = select i1 %.not, i32 0, i32 %12
  %.not68 = icmp eq i32 %8, 0
  br i1 %.not68, label %._crit_edge, label %.lr.ph

.lr.ph:                                           ; preds = %4
  %.not52 = icmp eq i32 %10, 0
  %15 = and i32 %.fr, 8192
  %.not53 = icmp eq i32 %15, 0
  %16 = and i32 %.fr, 4096
  %.not54 = icmp eq i32 %16, 0
  br i1 %.not54, label %.lr.ph.split.us.preheader, label %.lr.ph.split

.lr.ph.split.us.preheader:                        ; preds = %.lr.ph
  %17 = zext nneg i32 %spec.select to i64
  %wide.trip.count90 = zext nneg i32 %8 to i64
  %invariant.gep = getelementptr inbounds i8, ptr %2, i64 %17
  br label %.lr.ph.split.us

.lr.ph.split.us:                                  ; preds = %.lr.ph.split.us.preheader, %_cmsQuickSaturateWord.exit.us
  %indvars.iv87 = phi i64 [ 0, %.lr.ph.split.us.preheader ], [ %indvars.iv.next88, %_cmsQuickSaturateWord.exit.us ]
  %18 = trunc nuw nsw i64 %indvars.iv87 to i32
  %19 = xor i32 %18, -1
  %20 = add nsw i32 %8, %19
  %21 = select i1 %.not52, i32 %18, i32 %20
  %22 = zext i32 %21 to i64
  %23 = getelementptr inbounds float, ptr %1, i64 %22
  %24 = load float, ptr %23, align 4
  %25 = fpext float %24 to double
  %26 = fmul double %25, 6.553500e+04
  %27 = fsub double 6.553500e+04, %26
  %.049.us = select i1 %.not53, double %26, double %27
  %28 = fadd double %.049.us, 5.000000e-01
  %29 = fcmp ugt double %28, 0.000000e+00
  br i1 %29, label %30, label %_cmsQuickSaturateWord.exit.us

30:                                               ; preds = %.lr.ph.split.us
  %31 = fcmp ult double %28, 6.553500e+04
  br i1 %31, label %32, label %_cmsQuickSaturateWord.exit.us

32:                                               ; preds = %30
  %33 = fadd double %28, -3.276700e+04
  %34 = tail call double @llvm.floor.f64(double %33)
  %35 = fptosi double %34 to i32
  %36 = add i32 %35, 32767
  br label %_cmsQuickSaturateWord.exit.us

_cmsQuickSaturateWord.exit.us:                    ; preds = %32, %30, %.lr.ph.split.us
  %.0.i.us = phi i32 [ %36, %32 ], [ 0, %.lr.ph.split.us ], [ 65535, %30 ]
  %37 = and i32 %.0.i.us, 65535
  %38 = mul nuw i32 %37, 65281
  %39 = add nuw i32 %38, 8388608
  %40 = lshr i32 %39, 24
  %41 = trunc nuw i32 %40 to i8
  %gep = getelementptr inbounds i8, ptr %invariant.gep, i64 %indvars.iv87
  store i8 %41, ptr %gep, align 1
  %indvars.iv.next88 = add nuw nsw i64 %indvars.iv87, 1
  %exitcond91.not = icmp eq i64 %indvars.iv.next88, %wide.trip.count90
  br i1 %exitcond91.not, label %._crit_edge, label %.lr.ph.split.us, !llvm.loop !34

.lr.ph.split:                                     ; preds = %.lr.ph
  %wide.trip.count85 = zext nneg i32 %8 to i64
  br i1 %.not52, label %.lr.ph.split.split.us, label %.lr.ph.split.split

.lr.ph.split.split.us:                            ; preds = %.lr.ph.split, %_cmsQuickSaturateWord.exit.us57
  %indvars.iv82 = phi i64 [ %indvars.iv.next83, %_cmsQuickSaturateWord.exit.us57 ], [ 0, %.lr.ph.split ]
  %42 = getelementptr inbounds float, ptr %1, i64 %indvars.iv82
  %43 = load float, ptr %42, align 4
  %44 = fpext float %43 to double
  %45 = fmul double %44, 6.553500e+04
  %46 = fsub double 6.553500e+04, %45
  %.049.us59 = select i1 %.not53, double %45, double %46
  %47 = fadd double %.049.us59, 5.000000e-01
  %48 = fcmp ugt double %47, 0.000000e+00
  br i1 %48, label %49, label %_cmsQuickSaturateWord.exit.us57

49:                                               ; preds = %.lr.ph.split.split.us
  %50 = fcmp ult double %47, 6.553500e+04
  br i1 %50, label %51, label %_cmsQuickSaturateWord.exit.us57

51:                                               ; preds = %49
  %52 = fadd double %47, -3.276700e+04
  %53 = tail call double @llvm.floor.f64(double %52)
  %54 = fptosi double %53 to i32
  %55 = add i32 %54, 32767
  br label %_cmsQuickSaturateWord.exit.us57

_cmsQuickSaturateWord.exit.us57:                  ; preds = %.lr.ph.split.split.us, %51, %49
  %.0.i.us58 = phi i32 [ %55, %51 ], [ 0, %.lr.ph.split.split.us ], [ 65535, %49 ]
  %56 = and i32 %.0.i.us58, 65535
  %57 = mul nuw i32 %56, 65281
  %58 = add nuw i32 %57, 8388608
  %59 = lshr i32 %58, 24
  %60 = trunc nuw i32 %59 to i8
  %61 = trunc i64 %indvars.iv82 to i32
  %62 = add i32 %spec.select, %61
  %63 = mul i32 %62, %3
  %64 = zext i32 %63 to i64
  %65 = getelementptr inbounds i8, ptr %2, i64 %64
  store i8 %60, ptr %65, align 1
  %indvars.iv.next83 = add nuw nsw i64 %indvars.iv82, 1
  %exitcond86.not = icmp eq i64 %indvars.iv.next83, %wide.trip.count85
  br i1 %exitcond86.not, label %._crit_edge, label %.lr.ph.split.split.us, !llvm.loop !34

.lr.ph.split.split:                               ; preds = %.lr.ph.split
  br i1 %.not53, label %.lr.ph.split.split.split.us, label %.lr.ph.split.split.split

.lr.ph.split.split.split.us:                      ; preds = %.lr.ph.split.split, %_cmsQuickSaturateWord.exit.us63
  %indvars.iv77 = phi i64 [ %indvars.iv.next78, %_cmsQuickSaturateWord.exit.us63 ], [ 0, %.lr.ph.split.split ]
  %66 = trunc nuw nsw i64 %indvars.iv77 to i32
  %67 = xor i32 %66, -1
  %68 = add nsw i32 %8, %67
  %69 = zext i32 %68 to i64
  %70 = getelementptr inbounds float, ptr %1, i64 %69
  %71 = load float, ptr %70, align 4
  %72 = fpext float %71 to double
  %73 = fmul double %72, 6.553500e+04
  %74 = fadd double %73, 5.000000e-01
  %75 = fcmp ugt double %74, 0.000000e+00
  br i1 %75, label %76, label %_cmsQuickSaturateWord.exit.us63

76:                                               ; preds = %.lr.ph.split.split.split.us
  %77 = fcmp ult double %74, 6.553500e+04
  br i1 %77, label %78, label %_cmsQuickSaturateWord.exit.us63

78:                                               ; preds = %76
  %79 = fadd double %74, -3.276700e+04
  %80 = tail call double @llvm.floor.f64(double %79)
  %81 = fptosi double %80 to i32
  %82 = add i32 %81, 32767
  br label %_cmsQuickSaturateWord.exit.us63

_cmsQuickSaturateWord.exit.us63:                  ; preds = %.lr.ph.split.split.split.us, %78, %76
  %.0.i.us64 = phi i32 [ %82, %78 ], [ 0, %.lr.ph.split.split.split.us ], [ 65535, %76 ]
  %83 = and i32 %.0.i.us64, 65535
  %84 = mul nuw i32 %83, 65281
  %85 = add nuw i32 %84, 8388608
  %86 = lshr i32 %85, 24
  %87 = trunc nuw i32 %86 to i8
  %88 = trunc i64 %indvars.iv77 to i32
  %89 = add i32 %spec.select, %88
  %90 = mul i32 %89, %3
  %91 = zext i32 %90 to i64
  %92 = getelementptr inbounds i8, ptr %2, i64 %91
  store i8 %87, ptr %92, align 1
  %indvars.iv.next78 = add nuw nsw i64 %indvars.iv77, 1
  %exitcond81.not = icmp eq i64 %indvars.iv.next78, %wide.trip.count85
  br i1 %exitcond81.not, label %._crit_edge, label %.lr.ph.split.split.split.us, !llvm.loop !34

.lr.ph.split.split.split:                         ; preds = %.lr.ph.split.split, %_cmsQuickSaturateWord.exit
  %indvars.iv = phi i64 [ %indvars.iv.next, %_cmsQuickSaturateWord.exit ], [ 0, %.lr.ph.split.split ]
  %93 = trunc nuw nsw i64 %indvars.iv to i32
  %94 = xor i32 %93, -1
  %95 = add nsw i32 %8, %94
  %96 = zext i32 %95 to i64
  %97 = getelementptr inbounds float, ptr %1, i64 %96
  %98 = load float, ptr %97, align 4
  %99 = fpext float %98 to double
  %100 = fmul double %99, 6.553500e+04
  %101 = fsub double 6.553500e+04, %100
  %102 = fadd double %101, 5.000000e-01
  %103 = fcmp ugt double %102, 0.000000e+00
  br i1 %103, label %104, label %_cmsQuickSaturateWord.exit

104:                                              ; preds = %.lr.ph.split.split.split
  %105 = fcmp ult double %102, 6.553500e+04
  br i1 %105, label %106, label %_cmsQuickSaturateWord.exit

106:                                              ; preds = %104
  %107 = fadd double %102, -3.276700e+04
  %108 = tail call double @llvm.floor.f64(double %107)
  %109 = fptosi double %108 to i32
  %110 = add i32 %109, 32767
  br label %_cmsQuickSaturateWord.exit

_cmsQuickSaturateWord.exit:                       ; preds = %.lr.ph.split.split.split, %104, %106
  %.0.i = phi i32 [ %110, %106 ], [ 0, %.lr.ph.split.split.split ], [ 65535, %104 ]
  %111 = and i32 %.0.i, 65535
  %112 = mul nuw i32 %111, 65281
  %113 = add nuw i32 %112, 8388608
  %114 = lshr i32 %113, 24
  %115 = trunc nuw i32 %114 to i8
  %116 = trunc i64 %indvars.iv to i32
  %117 = add i32 %spec.select, %116
  %118 = mul i32 %117, %3
  %119 = zext i32 %118 to i64
  %120 = getelementptr inbounds i8, ptr %2, i64 %119
  store i8 %115, ptr %120, align 1
  %indvars.iv.next = add nuw nsw i64 %indvars.iv, 1
  %exitcond.not = icmp eq i64 %indvars.iv.next, %wide.trip.count85
  br i1 %exitcond.not, label %._crit_edge, label %.lr.ph.split.split.split, !llvm.loop !34

._crit_edge:                                      ; preds = %_cmsQuickSaturateWord.exit, %_cmsQuickSaturateWord.exit.us63, %_cmsQuickSaturateWord.exit.us57, %_cmsQuickSaturateWord.exit.us, %4
  %.048.lcssa = phi i8 [ 0, %4 ], [ %41, %_cmsQuickSaturateWord.exit.us ], [ %60, %_cmsQuickSaturateWord.exit.us57 ], [ %87, %_cmsQuickSaturateWord.exit.us63 ], [ %115, %_cmsQuickSaturateWord.exit ]
  %121 = icmp eq i32 %12, 0
  %122 = icmp ne i32 %14, 0
  %or.cond = and i1 %121, %122
  br i1 %or.cond, label %123, label %127

123:                                              ; preds = %._crit_edge
  %124 = getelementptr inbounds i8, ptr %2, i64 1
  %125 = add nsw i32 %8, -1
  %126 = zext i32 %125 to i64
  tail call void @llvm.memmove.p0.p0.i64(ptr nonnull align 1 %124, ptr align 1 %2, i64 %126, i1 false)
  store i8 %.048.lcssa, ptr %2, align 1
  br label %127

127:                                              ; preds = %123, %._crit_edge
  %128 = load i32, ptr %5, align 4
  %129 = and i32 %128, 4096
  %.not51 = icmp eq i32 %129, 0
  %130 = add nuw nsw i32 %8, %12
  %narrow = select i1 %.not51, i32 %130, i32 1
  %.0.v = zext nneg i32 %narrow to i64
  %.0 = getelementptr inbounds i8, ptr %2, i64 %.0.v
  ret ptr %.0
}